target datalayout = "e-m:e-p270:32:32-p271:32:32-p272:64:64-i64:64-i128:128-f80:128-n8:16:32:64-S128"
target triple = "x86_64-pc-linux-gnu"

%struct.malloc_params = type { i64, i64, i64, i64, i64, i32 }
%struct.malloc_state = type { i32, i32, i64, i64, ptr, ptr, ptr, i64, i64, i64, [66 x ptr], [32 x ptr], i64, i64, i64, i32, i32, %struct.malloc_segment, ptr, i64 }
%struct.malloc_segment = type { ptr, i64, ptr, i32 }
%struct.malloc_chunk = type { i64, i64, ptr, ptr }

@mparams = internal global %struct.malloc_params zeroinitializer, align 8

; Function Attrs: nounwind uwtable
define internal void @init_top(ptr noundef %0, ptr noundef %1, i64 noundef %2) #0 {
  %4 = alloca ptr, align 8
  %5 = alloca ptr, align 8
  %6 = alloca i64, align 8
  %7 = alloca i64, align 8
  store ptr %0, ptr %4, align 8, !tbaa !16
  store ptr %1, ptr %5, align 8, !tbaa !16
  store i64 %2, ptr %6, align 8, !tbaa !3
  call void @llvm.lifetime.start.p0(i64 8, ptr %7) #9
  %8 = load ptr, ptr %5, align 8, !tbaa !16
  %9 = getelementptr inbounds nuw i8, ptr %8, i64 16
  %10 = ptrtoint ptr %9 to i64
  %11 = and i64 %10, 15
  %12 = icmp eq i64 %11, 0
  br i1 %12, label %13, label %14

13:                                               ; preds = %3
  br label %21

14:                                               ; preds = %3
  %15 = load ptr, ptr %5, align 8, !tbaa !16
  %16 = getelementptr inbounds nuw i8, ptr %15, i64 16
  %17 = ptrtoint ptr %16 to i64
  %18 = and i64 %17, 15
  %19 = sub i64 16, %18
  %20 = and i64 %19, 15
  br label %21

21:                                               ; preds = %14, %13
  %22 = phi i64 [ 0, %13 ], [ %20, %14 ]
  store i64 %22, ptr %7, align 8, !tbaa !3
  %23 = load ptr, ptr %5, align 8, !tbaa !16
  %24 = load i64, ptr %7, align 8, !tbaa !3
  %25 = getelementptr inbounds nuw i8, ptr %23, i64 %24
  store ptr %25, ptr %5, align 8, !tbaa !16
  %26 = load i64, ptr %7, align 8, !tbaa !3
  %27 = load i64, ptr %6, align 8, !tbaa !3
  %28 = sub i64 %27, %26
  store i64 %28, ptr %6, align 8, !tbaa !3
  %29 = load ptr, ptr %5, align 8, !tbaa !16
  %30 = load ptr, ptr %4, align 8, !tbaa !16
  %31 = getelementptr inbounds nuw %struct.malloc_state, ptr %30, i32 0, i32 6
  store ptr %29, ptr %31, align 8, !tbaa !27
  %32 = load i64, ptr %6, align 8, !tbaa !3
  %33 = load ptr, ptr %4, align 8, !tbaa !16
  %34 = getelementptr inbounds nuw %struct.malloc_state, ptr %33, i32 0, i32 3
  store i64 %32, ptr %34, align 8, !tbaa !26
  %35 = load i64, ptr %6, align 8, !tbaa !3
  %36 = or i64 %35, 1
  %37 = load ptr, ptr %5, align 8, !tbaa !16
  %38 = getelementptr inbounds nuw %struct.malloc_chunk, ptr %37, i32 0, i32 1
  store i64 %36, ptr %38, align 8, !tbaa !21
  %39 = load ptr, ptr %5, align 8, !tbaa !16
  %40 = load i64, ptr %6, align 8, !tbaa !3
  %41 = getelementptr inbounds nuw i8, ptr %39, i64 %40
  %42 = getelementptr inbounds nuw %struct.malloc_chunk, ptr %41, i32 0, i32 1
  store i64 80, ptr %42, align 8, !tbaa !21
  %43 = load i64, ptr getelementptr inbounds nuw (%struct.malloc_params, ptr @mparams, i32 0, i32 4), align 8, !tbaa !31
  %44 = load ptr, ptr %4, align 8, !tbaa !16
  %45 = getelementptr inbounds nuw %struct.malloc_state, ptr %44, i32 0, i32 7
  store i64 %43, ptr %45, align 8, !tbaa !61
  call void @llvm.lifetime.end.p0(i64 8, ptr %7) #9
  ret void
}

; Function Attrs: nounwind uwtable
define internal void @init_bins(ptr noundef %0) #0 {
  %2 = alloca ptr, align 8
  %3 = alloca i32, align 4
  %4 = alloca ptr, align 8
  store ptr %0, ptr %2, align 8, !tbaa !16
  call void @llvm.lifetime.start.p0(i64 4, ptr %3) #9
  store i32 0, ptr %3, align 4, !tbaa !14
  br label %5

5:                                                ; preds = %20, %1
  %6 = load i32, ptr %3, align 4, !tbaa !14
  %7 = icmp ult i32 %6, 32
  br i1 %7, label %8, label %23

8:                                                ; preds = %5
  call void @llvm.lifetime.start.p0(i64 8, ptr %4) #9
  %9 = load ptr, ptr %2, align 8, !tbaa !16
  %10 = getelementptr inbounds nuw %struct.malloc_state, ptr %9, i32 0, i32 10
  %11 = load i32, ptr %3, align 4, !tbaa !14
  %12 = shl i32 %11, 1
  %13 = zext i32 %12 to i64
  %14 = getelementptr inbounds nuw [66 x ptr], ptr %10, i64 0, i64 %13
  store ptr %14, ptr %4, align 8, !tbaa !16
  %15 = load ptr, ptr %4, align 8, !tbaa !16
  %16 = load ptr, ptr %4, align 8, !tbaa !16
  %17 = getelementptr inbounds nuw %struct.malloc_chunk, ptr %16, i32 0, i32 3
  store ptr %15, ptr %17, align 8, !tbaa !20
  %18 = load ptr, ptr %4, align 8, !tbaa !16
  %19 = getelementptr inbounds nuw %struct.malloc_chunk, ptr %18, i32 0, i32 2
  store ptr %15, ptr %19, align 8, !tbaa !17
  call void @llvm.lifetime.end.p0(i64 8, ptr %4) #9
  br label %20

20:                                               ; preds = %8
  %21 = load i32, ptr %3, align 4, !tbaa !14
  %22 = add i32 %21, 1
  store i32 %22, ptr %3, align 4, !tbaa !14
  br label %5, !llvm.loop !106

23:                                               ; preds = %5
  call void @llvm.lifetime.end.p0(i64 4, ptr %3) #9
  ret void
}

; Function Attrs: nounwind uwtable
define internal ptr @init_user_mstate(ptr noundef %0, i64 noundef %1) #0 {
  %3 = alloca ptr, align 8
  %4 = alloca i64, align 8
  %5 = alloca i64, align 8
  %6 = alloca ptr, align 8
  %7 = alloca ptr, align 8
  %8 = alloca ptr, align 8
  store ptr %0, ptr %3, align 8, !tbaa !16
  store i64 %1, ptr %4, align 8, !tbaa !3
  call void @llvm.lifetime.start.p0(i64 8, ptr %5) #9
  store i64 944, ptr %5, align 8, !tbaa !3
  call void @llvm.lifetime.start.p0(i64 8, ptr %6) #9
  call void @llvm.lifetime.start.p0(i64 8, ptr %7) #9
  %9 = load ptr, ptr %3, align 8, !tbaa !16
  %10 = load ptr, ptr %3, align 8, !tbaa !16
  %11 = getelementptr inbounds nuw i8, ptr %10, i64 16
  %12 = ptrtoint ptr %11 to i64
  %13 = and i64 %12, 15
  %14 = icmp eq i64 %13, 0
  br i1 %14, label %15, label %16

15:                                               ; preds = %2
  br label %23

16:                                               ; preds = %2
  %17 = load ptr, ptr %3, align 8, !tbaa !16
  %18 = getelementptr inbounds nuw i8, ptr %17, i64 16
  %19 = ptrtoint ptr %18 to i64
  %20 = and i64 %19, 15
  %21 = sub i64 16, %20
  %22 = and i64 %21, 15
  br label %23

23:                                               ; preds = %16, %15
  %24 = phi i64 [ 0, %15 ], [ %22, %16 ]
  %25 = getelementptr inbounds nuw i8, ptr %9, i64 %24
  store ptr %25, ptr %7, align 8, !tbaa !16
  call void @llvm.lifetime.start.p0(i64 8, ptr %8) #9
  %26 = load ptr, ptr %7, align 8, !tbaa !16
  %27 = getelementptr inbounds nuw i8, ptr %26, i64 16
  store ptr %27, ptr %8, align 8, !tbaa !16
  %28 = load ptr, ptr %8, align 8, !tbaa !16
  %29 = load i64, ptr %5, align 8, !tbaa !3
  call void @llvm.memset.p0.i64(ptr align 8 %28, i8 0, i64 %29, i1 false)
  %30 = load ptr, ptr %8, align 8, !tbaa !16
  %31 = getelementptr inbounds nuw %struct.malloc_state, ptr %30, i32 0, i32 16
  store i32 0, ptr %31, align 4, !tbaa !33
  %32 = load i64, ptr %5, align 8, !tbaa !3
  %33 = or i64 %32, 3
  %34 = load ptr, ptr %7, align 8, !tbaa !16
  %35 = getelementptr inbounds nuw %struct.malloc_chunk, ptr %34, i32 0, i32 1
  store i64 %33, ptr %35, align 8, !tbaa !21
  %36 = load ptr, ptr %3, align 8, !tbaa !16
  %37 = load ptr, ptr %8, align 8, !tbaa !16
  %38 = getelementptr inbounds nuw %struct.malloc_state, ptr %37, i32 0, i32 4
  store ptr %36, ptr %38, align 8, !tbaa !19
  %39 = load ptr, ptr %8, align 8, !tbaa !16
  %40 = getelementptr inbounds nuw %struct.malloc_state, ptr %39, i32 0, i32 17
  %41 = getelementptr inbounds nuw %struct.malloc_segment, ptr %40, i32 0, i32 0
  store ptr %36, ptr %41, align 8, !tbaa !49
  %42 = load i64, ptr %4, align 8, !tbaa !3
  %43 = load ptr, ptr %8, align 8, !tbaa !16
  %44 = getelementptr inbounds nuw %struct.malloc_state, ptr %43, i32 0, i32 13
  store i64 %42, ptr %44, align 8, !tbaa !48
  %45 = load ptr, ptr %8, align 8, !tbaa !16
  %46 = getelementptr inbounds nuw %struct.malloc_state, ptr %45, i32 0, i32 12
  store i64 %42, ptr %46, align 8, !tbaa !47
  %47 = load ptr, ptr %8, align 8, !tbaa !16
  %48 = getelementptr inbounds nuw %struct.malloc_state, ptr %47, i32 0, i32 17
  %49 = getelementptr inbounds nuw %struct.malloc_segment, ptr %48, i32 0, i32 1
  store i64 %42, ptr %49, align 8, !tbaa !50
  %50 = load i64, ptr @mparams, align 8, !tbaa !7
  %51 = load ptr, ptr %8, align 8, !tbaa !16
  %52 = getelementptr inbounds nuw %struct.malloc_state, ptr %51, i32 0, i32 9
  store i64 %50, ptr %52, align 8, !tbaa !52
  %53 = load ptr, ptr %8, align 8, !tbaa !16
  %54 = getelementptr inbounds nuw %struct.malloc_state, ptr %53, i32 0, i32 8
  store i64 4095, ptr %54, align 8, !tbaa !53
  %55 = load i32, ptr getelementptr inbounds nuw (%struct.malloc_params, ptr @mparams, i32 0, i32 5), align 8, !tbaa !32
  %56 = load ptr, ptr %8, align 8, !tbaa !16
  %57 = getelementptr inbounds nuw %struct.malloc_state, ptr %56, i32 0, i32 15
  store i32 %55, ptr %57, align 8, !tbaa !10
  %58 = load ptr, ptr %8, align 8, !tbaa !16
  %59 = getelementptr inbounds nuw %struct.malloc_state, ptr %58, i32 0, i32 18
  store ptr null, ptr %59, align 8, !tbaa !71
  %60 = load ptr, ptr %8, align 8, !tbaa !16
  %61 = getelementptr inbounds nuw %struct.malloc_state, ptr %60, i32 0, i32 19
  store i64 0, ptr %61, align 8, !tbaa !72
  %62 = load ptr, ptr %8, align 8, !tbaa !16
  %63 = getelementptr inbounds nuw %struct.malloc_state, ptr %62, i32 0, i32 15
  %64 = load i32, ptr %63, align 8, !tbaa !10
  %65 = or i32 %64, 4
  store i32 %65, ptr %63, align 8, !tbaa !10
  %66 = load ptr, ptr %8, align 8, !tbaa !16
  call void @init_bins(ptr noundef %66)
  %67 = load ptr, ptr %8, align 8, !tbaa !16
  %68 = getelementptr inbounds i8, ptr %67, i64 -16
  %69 = load ptr, ptr %8, align 8, !tbaa !16
  %70 = getelementptr inbounds i8, ptr %69, i64 -16
  %71 = getelementptr inbounds nuw %struct.malloc_chunk, ptr %70, i32 0, i32 1
  %72 = load i64, ptr %71, align 8, !tbaa !21
  %73 = and i64 %72, -8
  %74 = getelementptr inbounds nuw i8, ptr %68, i64 %73
  store ptr %74, ptr %6, align 8, !tbaa !16
  %75 = load ptr, ptr %8, align 8, !tbaa !16
  %76 = load ptr, ptr %6, align 8, !tbaa !16
  %77 = load ptr, ptr %3, align 8, !tbaa !16
  %78 = load i64, ptr %4, align 8, !tbaa !3
  %79 = getelementptr inbounds nuw i8, ptr %77, i64 %78
  %80 = load ptr, ptr %6, align 8, !tbaa !16
  %81 = ptrtoint ptr %79 to i64
  %82 = ptrtoint ptr %80 to i64
  %83 = sub i64 %81, %82
  %84 = sub i64 %83, 80
  call void @init_top(ptr noundef %75, ptr noundef %76, i64 noundef %84)
  %85 = load ptr, ptr %8, align 8, !tbaa !16
  call void @llvm.lifetime.end.p0(i64 8, ptr %8) #9
  call void @llvm.lifetime.end.p0(i64 8, ptr %7) #9
  call void @llvm.lifetime.end.p0(i64 8, ptr %6) #9
  call void @llvm.lifetime.end.p0(i64 8, ptr %5) #9
  ret ptr %85
}

; Function Attrs: nounwind uwtable
define hidden ptr @create_mspace_with_base(ptr noundef %0, i64 noundef %1, i32 noundef %2) #0 {
  %4 = alloca ptr, align 8
  %5 = alloca i64, align 8
  %6 = alloca i32, align 4
  %7 = alloca ptr, align 8
  %8 = alloca i64, align 8
  store ptr %0, ptr %4, align 8, !tbaa !16
  store i64 %1, ptr %5, align 8, !tbaa !3
  store i32 %2, ptr %6, align 4, !tbaa !14
  call void @llvm.lifetime.start.p0(i64 8, ptr %7) #9
  store ptr null, ptr %7, align 8, !tbaa !16
  call void @llvm.lifetime.start.p0(i64 8, ptr %8) #9
  %9 = load i64, ptr @mparams, align 8, !tbaa !7
  %10 = icmp ne i64 %9, 0
  br i1 %10, label %13, label %11

11:                                               ; preds = %3
  %12 = call i32 @init_mparams()
  br label %13

13:                                               ; preds = %11, %3
  store i64 944, ptr %8, align 8, !tbaa !3
  %14 = load i64, ptr %5, align 8, !tbaa !3
  %15 = load i64, ptr %8, align 8, !tbaa !3
  %16 = add i64 %15, 80
  %17 = icmp ugt i64 %14, %16
  br i1 %17, label %18, label %49

18:                                               ; preds = %13
  %19 = load i64, ptr %5, align 8, !tbaa !3
  %20 = load i64, ptr %8, align 8, !tbaa !3
  %21 = add i64 %20, 80
  %22 = load i64, ptr getelementptr inbounds nuw (%struct.malloc_params, ptr @mparams, i32 0, i32 1), align 8, !tbaa !29
  %23 = add i64 %21, %22
  %24 = sub i64 0, %23
  %25 = icmp ult i64 %19, %24
  br i1 %25, label %26, label %49

26:                                               ; preds = %18
  %27 = load ptr, ptr %4, align 8, !tbaa !16
  %28 = load i64, ptr %5, align 8, !tbaa !3
  %29 = call ptr @init_user_mstate(ptr noundef %27, i64 noundef %28)
  store ptr %29, ptr %7, align 8, !tbaa !16
  %30 = load ptr, ptr %7, align 8, !tbaa !16
  %31 = getelementptr inbounds nuw %struct.malloc_state, ptr %30, i32 0, i32 17
  %32 = getelementptr inbounds nuw %struct.malloc_segment, ptr %31, i32 0, i32 3
  store i32 8, ptr %32, align 8, !tbaa !51
  %33 = load i32, ptr %6, align 4, !tbaa !14
  %34 = icmp ne i32 %33, 0
  br i1 %34, label %35, label %40

35:                                               ; preds = %26
  %36 = load ptr, ptr %7, align 8, !tbaa !16
  %37 = getelementptr inbounds nuw %struct.malloc_state, ptr %36, i32 0, i32 15
  %38 = load i32, ptr %37, align 8, !tbaa !10
  %39 = or i32 %38, 2
  br label %45

40:                                               ; preds = %26
  %41 = load ptr, ptr %7, align 8, !tbaa !16
  %42 = getelementptr inbounds nuw %struct.malloc_state, ptr %41, i32 0, i32 15
  %43 = load i32, ptr %42, align 8, !tbaa !10
  %44 = and i32 %43, -3
  br label %45

45:                                               ; preds = %40, %35
  %46 = phi i32 [ %39, %35 ], [ %44, %40 ]
  %47 = load ptr, ptr %7, align 8, !tbaa !16
  %48 = getelementptr inbounds nuw %struct.malloc_state, ptr %47, i32 0, i32 15
  store i32 %46, ptr %48, align 8, !tbaa !10
  br label %49

49:                                               ; preds = %45, %18, %13
  %50 = load ptr, ptr %7, align 8, !tbaa !16
  call void @llvm.lifetime.end.p0(i64 8, ptr %8) #9
  call void @llvm.lifetime.end.p0(i64 8, ptr %7) #9
  ret ptr %50
}