; Function Attrs: nounwind uwtable
define hidden noundef ptr @create_mspace_with_base(ptr noundef %0, i64 noundef %1, i32 noundef %2) local_unnamed_addr #0 {
  %4 = load i64, ptr @mparams, align 8, !tbaa !3
  %.not = icmp eq i64 %4, 0
  br i1 %.not, label %5, label %6

5:                                                ; preds = %3
  tail call fastcc void @init_mparams()
  br label %6

6:                                                ; preds = %5, %3
  %7 = icmp ugt i64 %1, 1024
  br i1 %7, label %8, label %62

8:                                                ; preds = %6
  %9 = load i64, ptr getelementptr inbounds nuw (i8, ptr @mparams, i64 8), align 8, !tbaa !31
  %10 = sub i64 -1024, %9
  %11 = icmp ult i64 %1, %10
  br i1 %11, label %12, label %62

12:                                               ; preds = %8
  %13 = getelementptr inbounds nuw i8, ptr %0, i64 16
  %14 = ptrtoint ptr %13 to i64
  %15 = sub i64 0, %14
  %16 = and i64 %15, 15
  %17 = getelementptr inbounds nuw i8, ptr %0, i64 %16
  %18 = getelementptr inbounds nuw i8, ptr %17, i64 16
  %19 = getelementptr inbounds nuw i8, ptr %17, i64 8
  tail call void @llvm.memset.p0.i64(ptr noundef nonnull align 8 dereferenceable(944) %18, i8 0, i64 944, i1 false)
  store i64 947, ptr %19, align 8, !tbaa !23
  %20 = getelementptr inbounds nuw i8, ptr %17, i64 40
  store ptr %0, ptr %20, align 8, !tbaa !19
  %21 = getelementptr inbounds nuw i8, ptr %17, i64 904
  store ptr %0, ptr %21, align 8, !tbaa !51
  %22 = getelementptr inbounds nuw i8, ptr %17, i64 880
  store i64 %1, ptr %22, align 8, !tbaa !50
  %23 = getelementptr inbounds nuw i8, ptr %17, i64 872
  store i64 %1, ptr %23, align 8, !tbaa !49
  %24 = getelementptr inbounds nuw i8, ptr %17, i64 912
  store i64 %1, ptr %24, align 8, !tbaa !52
  %25 = load i64, ptr @mparams, align 8, !tbaa !3
  %26 = getelementptr inbounds nuw i8, ptr %17, i64 80
  store i64 %25, ptr %26, align 8, !tbaa !54
  %27 = getelementptr inbounds nuw i8, ptr %17, i64 72
  store i64 4095, ptr %27, align 8, !tbaa !55
  %28 = load i32, ptr getelementptr inbounds nuw (i8, ptr @mparams, i64 40), align 8, !tbaa !34
  %29 = getelementptr inbounds nuw i8, ptr %17, i64 896
  %30 = getelementptr inbounds nuw i8, ptr %17, i64 936
  tail call void @llvm.memset.p0.i64(ptr noundef nonnull align 8 dereferenceable(16) %30, i8 0, i64 16, i1 false)
  %31 = getelementptr inbounds nuw i8, ptr %17, i64 88
  br label %32

32:                                               ; preds = %32, %12
  %indvars.iv.i.i = phi i64 [ 0, %12 ], [ %indvars.iv.next.i.i, %32 ]
  %33 = shl nuw nsw i64 %indvars.iv.i.i, 1
  %34 = getelementptr inbounds nuw [66 x ptr], ptr %31, i64 0, i64 %33
  %35 = getelementptr inbounds nuw i8, ptr %34, i64 24
  store ptr %34, ptr %35, align 8, !tbaa !21
  %36 = getelementptr inbounds nuw i8, ptr %34, i64 16
  store ptr %34, ptr %36, align 8, !tbaa !17
  %indvars.iv.next.i.i = add nuw nsw i64 %indvars.iv.i.i, 1
  %exitcond.not.i.i = icmp eq i64 %indvars.iv.next.i.i, 32
  br i1 %exitcond.not.i.i, label %init_user_mstate.exit, label %32, !llvm.loop !56

init_user_mstate.exit:                            ; preds = %32
  %37 = getelementptr inbounds nuw i8, ptr %17, i64 944
  %38 = getelementptr inbounds nuw i8, ptr %0, i64 %1
  %39 = ptrtoint ptr %38 to i64
  %40 = ptrtoint ptr %37 to i64
  %41 = sub i64 %39, %40
  %42 = add i64 %41, -80
  %43 = getelementptr inbounds nuw i8, ptr %17, i64 960
  %44 = ptrtoint ptr %43 to i64
  %45 = sub i64 0, %44
  %46 = and i64 %45, 15
  %47 = getelementptr inbounds nuw i8, ptr %37, i64 %46
  %48 = sub i64 %42, %46
  %49 = getelementptr inbounds nuw i8, ptr %17, i64 56
  store ptr %47, ptr %49, align 8, !tbaa !29
  %50 = getelementptr inbounds nuw i8, ptr %17, i64 32
  store i64 %48, ptr %50, align 8, !tbaa !28
  %51 = or i64 %48, 1
  %52 = getelementptr inbounds nuw i8, ptr %47, i64 8
  store i64 %51, ptr %52, align 8, !tbaa !23
  %53 = getelementptr inbounds nuw i8, ptr %37, i64 %42
  %54 = getelementptr inbounds nuw i8, ptr %53, i64 8
  store i64 80, ptr %54, align 8, !tbaa !23
  %55 = load i64, ptr getelementptr inbounds nuw (i8, ptr @mparams, i64 32), align 8, !tbaa !33
  %56 = getelementptr inbounds nuw i8, ptr %17, i64 64
  store i64 %55, ptr %56, align 8, !tbaa !57
  %57 = getelementptr inbounds nuw i8, ptr %17, i64 928
  store i32 8, ptr %57, align 8, !tbaa !53
  %.not12 = icmp eq i32 %2, 0
  %58 = or i32 %28, 6
  %59 = and i32 %28, -7
  %60 = or disjoint i32 %59, 4
  %61 = select i1 %.not12, i32 %60, i32 %58
  store i32 %61, ptr %29, align 8, !tbaa !9
  br label %62

62:                                               ; preds = %init_user_mstate.exit, %8, %6
  %.0 = phi ptr [ %18, %init_user_mstate.exit ], [ null, %8 ], [ null, %6 ]
  ret ptr %.0
}